#include <math.h>
#include <stdio.h>
#include <stdlib.h>
#include <string.h>

void main()
{
char c=',';int i=0,a[301],j,max=0;
while(c==',')   {scanf("%d%c",&a[i],&c);i++;}
for(j=0;j<i;j++)    {if(a[j]>max)  max=a[j];}
for(j=0;j<i;j++)    {if(a[j]==max)  a[j]=0;}
max=0;
for(j=0;j<i;j++)    {if(a[j]>max)  max=a[j];}
if(max==0)   printf("No");
else   printf("%d",max);
}
